target datalayout = "e-m:e-p270:32:32-p271:32:32-p272:64:64-i64:64-i128:128-f80:128-n8:16:32:64-S128"
target triple = "x86_64-pc-linux-gnu"

%struct.lexbor_str_t = type { ptr, i64 }
%struct.lxb_selectors_t = type { ptr, ptr, i32 }
%struct.lxb_selectors_entry = type { i64, ptr, ptr, ptr, ptr, ptr }
%struct.lxb_css_selector = type { i32, i32, %struct.lexbor_str_t, %struct.lexbor_str_t, %union.lxb_css_selector_u, ptr, ptr, ptr }
%union.lxb_css_selector_u = type { %struct.lxb_css_selector_attribute_t }
%struct.lxb_css_selector_attribute_t = type { i32, i32, %struct.lexbor_str_t }
%struct.lxb_dom_node = type { %struct.lxb_dom_event_target, i64, i64, i64, ptr, ptr, ptr, ptr, ptr, ptr, ptr, i32, i64 }
%struct.lxb_dom_event_target = type { ptr }

; Function Attrs: nounwind uwtable
define internal ptr @lxb_selectors_following(ptr noundef %0, ptr noundef %1, ptr noundef %2, ptr noundef %3) #0 {
  %5 = alloca ptr, align 8
  %6 = alloca ptr, align 8
  %7 = alloca ptr, align 8
  %8 = alloca ptr, align 8
  %9 = alloca ptr, align 8
  store ptr %0, ptr %6, align 8
  store ptr %1, ptr %7, align 8
  store ptr %2, ptr %8, align 8
  store ptr %3, ptr %9, align 8
  %10 = load ptr, ptr %9, align 8
  %11 = getelementptr inbounds %struct.lxb_dom_node, ptr %10, i32 0, i32 5
  %12 = load ptr, ptr %11, align 8
  store ptr %12, ptr %9, align 8
  br label %13

13:                                               ; preds = %29, %4
  %14 = load ptr, ptr %9, align 8
  %15 = icmp ne ptr %14, null
  br i1 %15, label %16, label %33

16:                                               ; preds = %13
  %17 = load ptr, ptr %9, align 8
  %18 = getelementptr inbounds %struct.lxb_dom_node, ptr %17, i32 0, i32 11
  %19 = load i32, ptr %18, align 8
  %20 = icmp eq i32 %19, 1
  br i1 %20, label %21, label %29

21:                                               ; preds = %16
  %22 = load ptr, ptr %6, align 8
  %23 = load ptr, ptr %7, align 8
  %24 = load ptr, ptr %8, align 8
  %25 = load ptr, ptr %9, align 8
  %26 = call zeroext i1 @lxb_selectors_match(ptr noundef %22, ptr noundef %23, ptr noundef %24, ptr noundef %25)
  br i1 %26, label %27, label %29

27:                                               ; preds = %21
  %28 = load ptr, ptr %9, align 8
  store ptr %28, ptr %5, align 8
  br label %34

29:                                               ; preds = %21, %16
  %30 = load ptr, ptr %9, align 8
  %31 = getelementptr inbounds %struct.lxb_dom_node, ptr %30, i32 0, i32 5
  %32 = load ptr, ptr %31, align 8
  store ptr %32, ptr %9, align 8
  br label %13

33:                                               ; preds = %13
  store ptr null, ptr %5, align 8
  br label %34

34:                                               ; preds = %33, %27
  %35 = load ptr, ptr %5, align 8
  ret ptr %35
}

; Function Attrs: nounwind uwtable
define internal ptr @lxb_selectors_sibling(ptr noundef %0, ptr noundef %1, ptr noundef %2, ptr noundef %3) #0 {
  %5 = alloca ptr, align 8
  %6 = alloca ptr, align 8
  %7 = alloca ptr, align 8
  %8 = alloca ptr, align 8
  %9 = alloca ptr, align 8
  store ptr %0, ptr %6, align 8
  store ptr %1, ptr %7, align 8
  store ptr %2, ptr %8, align 8
  store ptr %3, ptr %9, align 8
  %10 = load ptr, ptr %9, align 8
  %11 = getelementptr inbounds %struct.lxb_dom_node, ptr %10, i32 0, i32 5
  %12 = load ptr, ptr %11, align 8
  store ptr %12, ptr %9, align 8
  br label %13

13:                                               ; preds = %30, %4
  %14 = load ptr, ptr %9, align 8
  %15 = icmp ne ptr %14, null
  br i1 %15, label %16, label %34

16:                                               ; preds = %13
  %17 = load ptr, ptr %9, align 8
  %18 = getelementptr inbounds %struct.lxb_dom_node, ptr %17, i32 0, i32 11
  %19 = load i32, ptr %18, align 8
  %20 = icmp eq i32 %19, 1
  br i1 %20, label %21, label %30

21:                                               ; preds = %16
  %22 = load ptr, ptr %6, align 8
  %23 = load ptr, ptr %7, align 8
  %24 = load ptr, ptr %8, align 8
  %25 = load ptr, ptr %9, align 8
  %26 = call zeroext i1 @lxb_selectors_match(ptr noundef %22, ptr noundef %23, ptr noundef %24, ptr noundef %25)
  br i1 %26, label %27, label %29

27:                                               ; preds = %21
  %28 = load ptr, ptr %9, align 8
  store ptr %28, ptr %5, align 8
  br label %35

29:                                               ; preds = %21
  store ptr null, ptr %5, align 8
  br label %35

30:                                               ; preds = %16
  %31 = load ptr, ptr %9, align 8
  %32 = getelementptr inbounds %struct.lxb_dom_node, ptr %31, i32 0, i32 5
  %33 = load ptr, ptr %32, align 8
  store ptr %33, ptr %9, align 8
  br label %13

34:                                               ; preds = %13
  store ptr null, ptr %5, align 8
  br label %35

35:                                               ; preds = %34, %29, %27
  %36 = load ptr, ptr %5, align 8
  ret ptr %36
}

; Function Attrs: nounwind uwtable
define internal ptr @lxb_selectors_child(ptr noundef %0, ptr noundef %1, ptr noundef %2, ptr noundef %3, ptr noundef %4) #0 {
  %6 = alloca ptr, align 8
  %7 = alloca ptr, align 8
  %8 = alloca ptr, align 8
  %9 = alloca ptr, align 8
  %10 = alloca ptr, align 8
  %11 = alloca ptr, align 8
  store ptr %0, ptr %7, align 8
  store ptr %1, ptr %8, align 8
  store ptr %2, ptr %9, align 8
  store ptr %3, ptr %10, align 8
  store ptr %4, ptr %11, align 8
  %12 = load ptr, ptr %10, align 8
  %13 = getelementptr inbounds %struct.lxb_dom_node, ptr %12, i32 0, i32 8
  %14 = load ptr, ptr %13, align 8
  store ptr %14, ptr %11, align 8
  br label %15

15:                                               ; preds = %31, %5
  %16 = load ptr, ptr %11, align 8
  %17 = icmp ne ptr %16, null
  br i1 %17, label %18, label %35

18:                                               ; preds = %15
  %19 = load ptr, ptr %11, align 8
  %20 = getelementptr inbounds %struct.lxb_dom_node, ptr %19, i32 0, i32 11
  %21 = load i32, ptr %20, align 8
  %22 = icmp eq i32 %21, 1
  br i1 %22, label %23, label %31

23:                                               ; preds = %18
  %24 = load ptr, ptr %7, align 8
  %25 = load ptr, ptr %8, align 8
  %26 = load ptr, ptr %9, align 8
  %27 = load ptr, ptr %11, align 8
  %28 = call zeroext i1 @lxb_selectors_match(ptr noundef %24, ptr noundef %25, ptr noundef %26, ptr noundef %27)
  br i1 %28, label %29, label %31

29:                                               ; preds = %23
  %30 = load ptr, ptr %11, align 8
  store ptr %30, ptr %6, align 8
  br label %36

31:                                               ; preds = %23, %18
  %32 = load ptr, ptr %11, align 8
  %33 = getelementptr inbounds %struct.lxb_dom_node, ptr %32, i32 0, i32 5
  %34 = load ptr, ptr %33, align 8
  store ptr %34, ptr %11, align 8
  br label %15

35:                                               ; preds = %15
  store ptr null, ptr %6, align 8
  br label %36

36:                                               ; preds = %35, %29
  %37 = load ptr, ptr %6, align 8
  ret ptr %37
}

; Function Attrs: nounwind uwtable
define internal ptr @lxb_selectors_close(ptr noundef %0, ptr noundef %1, ptr noundef %2, ptr noundef %3) #0 {
  %5 = alloca ptr, align 8
  %6 = alloca ptr, align 8
  %7 = alloca ptr, align 8
  %8 = alloca ptr, align 8
  %9 = alloca ptr, align 8
  store ptr %0, ptr %6, align 8
  store ptr %1, ptr %7, align 8
  store ptr %2, ptr %8, align 8
  store ptr %3, ptr %9, align 8
  %10 = load ptr, ptr %6, align 8
  %11 = load ptr, ptr %7, align 8
  %12 = load ptr, ptr %8, align 8
  %13 = load ptr, ptr %9, align 8
  %14 = call zeroext i1 @lxb_selectors_match(ptr noundef %10, ptr noundef %11, ptr noundef %12, ptr noundef %13)
  br i1 %14, label %15, label %17

15:                                               ; preds = %4
  %16 = load ptr, ptr %9, align 8
  store ptr %16, ptr %5, align 8
  br label %18

17:                                               ; preds = %4
  store ptr null, ptr %5, align 8
  br label %18

18:                                               ; preds = %17, %15
  %19 = load ptr, ptr %5, align 8
  ret ptr %19
}

; Function Attrs: nounwind uwtable
define internal ptr @lxb_selectors_descendant_next(ptr noundef %0, ptr noundef %1, ptr noundef %2, ptr noundef %3, ptr noundef %4) #0 {
  %6 = alloca ptr, align 8
  %7 = alloca ptr, align 8
  %8 = alloca ptr, align 8
  %9 = alloca ptr, align 8
  %10 = alloca ptr, align 8
  %11 = alloca ptr, align 8
  store ptr %0, ptr %7, align 8
  store ptr %1, ptr %8, align 8
  store ptr %2, ptr %9, align 8
  store ptr %3, ptr %10, align 8
  store ptr %4, ptr %11, align 8
  br label %12

12:                                               ; preds = %60, %5
  %13 = load ptr, ptr %11, align 8
  %14 = getelementptr inbounds %struct.lxb_dom_node, ptr %13, i32 0, i32 8
  %15 = load ptr, ptr %14, align 8
  %16 = icmp ne ptr %15, null
  br i1 %16, label %17, label %21

17:                                               ; preds = %12
  %18 = load ptr, ptr %11, align 8
  %19 = getelementptr inbounds %struct.lxb_dom_node, ptr %18, i32 0, i32 8
  %20 = load ptr, ptr %19, align 8
  store ptr %20, ptr %11, align 8
  br label %46

21:                                               ; preds = %12
  br label %22

22:                                               ; preds = %33, %21
  %23 = load ptr, ptr %11, align 8
  %24 = load ptr, ptr %10, align 8
  %25 = icmp ne ptr %23, %24
  br i1 %25, label %26, label %31

26:                                               ; preds = %22
  %27 = load ptr, ptr %11, align 8
  %28 = getelementptr inbounds %struct.lxb_dom_node, ptr %27, i32 0, i32 5
  %29 = load ptr, ptr %28, align 8
  %30 = icmp eq ptr %29, null
  br label %31

31:                                               ; preds = %26, %22
  %32 = phi i1 [ false, %22 ], [ %30, %26 ]
  br i1 %32, label %33, label %37

33:                                               ; preds = %31
  %34 = load ptr, ptr %11, align 8
  %35 = getelementptr inbounds %struct.lxb_dom_node, ptr %34, i32 0, i32 7
  %36 = load ptr, ptr %35, align 8
  store ptr %36, ptr %11, align 8
  br label %22

37:                                               ; preds = %31
  %38 = load ptr, ptr %11, align 8
  %39 = load ptr, ptr %10, align 8
  %40 = icmp eq ptr %38, %39
  br i1 %40, label %41, label %42

41:                                               ; preds = %37
  store ptr null, ptr %6, align 8
  br label %61

42:                                               ; preds = %37
  %43 = load ptr, ptr %11, align 8
  %44 = getelementptr inbounds %struct.lxb_dom_node, ptr %43, i32 0, i32 5
  %45 = load ptr, ptr %44, align 8
  store ptr %45, ptr %11, align 8
  br label %46

46:                                               ; preds = %42, %17
  %47 = load ptr, ptr %11, align 8
  %48 = getelementptr inbounds %struct.lxb_dom_node, ptr %47, i32 0, i32 11
  %49 = load i32, ptr %48, align 8
  %50 = icmp eq i32 %49, 1
  br i1 %50, label %51, label %59

51:                                               ; preds = %46
  %52 = load ptr, ptr %7, align 8
  %53 = load ptr, ptr %8, align 8
  %54 = load ptr, ptr %9, align 8
  %55 = load ptr, ptr %11, align 8
  %56 = call zeroext i1 @lxb_selectors_match(ptr noundef %52, ptr noundef %53, ptr noundef %54, ptr noundef %55)
  br i1 %56, label %57, label %59

57:                                               ; preds = %51
  %58 = load ptr, ptr %11, align 8
  store ptr %58, ptr %6, align 8
  br label %61

59:                                               ; preds = %51, %46
  br label %60

60:                                               ; preds = %59
  br i1 true, label %12, label %61

61:                                               ; preds = %60, %57, %41
  %62 = load ptr, ptr %6, align 8
  ret ptr %62
}

; Function Attrs: nounwind uwtable
define internal ptr @lxb_selectors_next_by_selector(ptr noundef %0, ptr noundef %1, ptr noundef %2, ptr noundef %3, ptr noundef %4, ptr noundef %5) #0 {
  %7 = alloca ptr, align 8
  %8 = alloca ptr, align 8
  %9 = alloca ptr, align 8
  %10 = alloca ptr, align 8
  %11 = alloca ptr, align 8
  %12 = alloca ptr, align 8
  %13 = alloca ptr, align 8
  %14 = alloca i32, align 4
  %15 = alloca ptr, align 8
  %16 = alloca ptr, align 8
  store ptr %0, ptr %8, align 8
  store ptr %1, ptr %9, align 8
  store ptr %2, ptr %10, align 8
  store ptr %3, ptr %11, align 8
  store ptr %4, ptr %12, align 8
  store ptr %5, ptr %13, align 8
  %17 = load ptr, ptr %9, align 8
  store ptr %17, ptr %15, align 8
  %18 = load ptr, ptr %9, align 8
  store ptr %18, ptr %16, align 8
  %19 = load ptr, ptr %10, align 8
  %20 = icmp eq ptr %19, null
  br i1 %20, label %21, label %35

21:                                               ; preds = %6
  %22 = load ptr, ptr %8, align 8
  %23 = getelementptr inbounds %struct.lxb_selectors_t, ptr %22, i32 0, i32 0
  %24 = load ptr, ptr %23, align 8
  %25 = call ptr @lexbor_dobject_calloc(ptr noundef %24)
  store ptr %25, ptr %10, align 8
  %26 = load ptr, ptr %10, align 8
  %27 = icmp eq ptr %26, null
  br i1 %27, label %28, label %31

28:                                               ; preds = %21
  %29 = load ptr, ptr %8, align 8
  %30 = getelementptr inbounds %struct.lxb_selectors_t, ptr %29, i32 0, i32 2
  store i32 2, ptr %30, align 8
  store ptr null, ptr %7, align 8
  br label %89

31:                                               ; preds = %21
  %32 = load ptr, ptr %11, align 8
  %33 = load ptr, ptr %10, align 8
  %34 = getelementptr inbounds %struct.lxb_selectors_entry, ptr %33, i32 0, i32 1
  store ptr %32, ptr %34, align 8
  br label %35

35:                                               ; preds = %31, %6
  %36 = load ptr, ptr %11, align 8
  %37 = getelementptr inbounds %struct.lxb_css_selector, ptr %36, i32 0, i32 1
  %38 = load i32, ptr %37, align 4
  switch i32 %38, label %72 [
    i32 0, label %39
    i32 1, label %46
    i32 2, label %52
    i32 3, label %59
    i32 4, label %65
    i32 5, label %71
  ]

39:                                               ; preds = %35
  %40 = load ptr, ptr %8, align 8
  %41 = load ptr, ptr %10, align 8
  %42 = load ptr, ptr %11, align 8
  %43 = load ptr, ptr %16, align 8
  %44 = load ptr, ptr %15, align 8
  %45 = call ptr @lxb_selectors_descendant_next(ptr noundef %40, ptr noundef %41, ptr noundef %42, ptr noundef %43, ptr noundef %44)
  store ptr %45, ptr %15, align 8
  br label %75

46:                                               ; preds = %35
  %47 = load ptr, ptr %8, align 8
  %48 = load ptr, ptr %10, align 8
  %49 = load ptr, ptr %11, align 8
  %50 = load ptr, ptr %15, align 8
  %51 = call ptr @lxb_selectors_close(ptr noundef %47, ptr noundef %48, ptr noundef %49, ptr noundef %50)
  store ptr %51, ptr %15, align 8
  br label %75

52:                                               ; preds = %35
  %53 = load ptr, ptr %8, align 8
  %54 = load ptr, ptr %10, align 8
  %55 = load ptr, ptr %11, align 8
  %56 = load ptr, ptr %16, align 8
  %57 = load ptr, ptr %15, align 8
  %58 = call ptr @lxb_selectors_child(ptr noundef %53, ptr noundef %54, ptr noundef %55, ptr noundef %56, ptr noundef %57)
  store ptr %58, ptr %15, align 8
  br label %75

59:                                               ; preds = %35
  %60 = load ptr, ptr %8, align 8
  %61 = load ptr, ptr %10, align 8
  %62 = load ptr, ptr %11, align 8
  %63 = load ptr, ptr %16, align 8
  %64 = call ptr @lxb_selectors_sibling(ptr noundef %60, ptr noundef %61, ptr noundef %62, ptr noundef %63)
  store ptr %64, ptr %15, align 8
  br label %75

65:                                               ; preds = %35
  %66 = load ptr, ptr %8, align 8
  %67 = load ptr, ptr %10, align 8
  %68 = load ptr, ptr %11, align 8
  %69 = load ptr, ptr %15, align 8
  %70 = call ptr @lxb_selectors_following(ptr noundef %66, ptr noundef %67, ptr noundef %68, ptr noundef %69)
  store ptr %70, ptr %15, align 8
  br label %75

71:                                               ; preds = %35
  br label %72

72:                                               ; preds = %71, %35
  %73 = load ptr, ptr %8, align 8
  %74 = getelementptr inbounds %struct.lxb_selectors_t, ptr %73, i32 0, i32 2
  store i32 1, ptr %74, align 8
  store ptr null, ptr %7, align 8
  br label %89

75:                                               ; preds = %65, %59, %52, %46, %39
  %76 = load ptr, ptr %8, align 8
  %77 = load ptr, ptr %10, align 8
  %78 = load ptr, ptr %9, align 8
  %79 = load ptr, ptr %15, align 8
  %80 = load ptr, ptr %11, align 8
  %81 = load ptr, ptr %12, align 8
  %82 = load ptr, ptr %13, align 8
  %83 = call i32 @lxb_selectors_find_by(ptr noundef %76, ptr noundef %77, ptr noundef %78, ptr noundef %79, ptr noundef %80, ptr noundef %81, ptr noundef %82)
  store i32 %83, ptr %14, align 4
  %84 = load i32, ptr %14, align 4
  %85 = icmp ne i32 %84, 0
  br i1 %85, label %86, label %87

86:                                               ; preds = %75
  store ptr null, ptr %7, align 8
  br label %89

87:                                               ; preds = %75
  %88 = load ptr, ptr %10, align 8
  store ptr %88, ptr %7, align 8
  br label %89

89:                                               ; preds = %87, %86, %72, %28
  %90 = load ptr, ptr %7, align 8
  ret ptr %90
}