; Function Attrs: nounwind uwtable
define internal fastcc ptr @lxb_selectors_next_by_selector(ptr nocapture noundef %0, ptr noundef %1, ptr noundef %2, ptr noundef %3, ptr nocapture noundef readonly %4, ptr noundef %5) unnamed_addr #0 {
  %7 = icmp eq ptr %2, null
  br i1 %7, label %8, label %16

8:                                                ; preds = %6
  %9 = load ptr, ptr %0, align 8
  %10 = tail call ptr @lexbor_dobject_calloc(ptr noundef %9) #6
  %11 = icmp eq ptr %10, null
  br i1 %11, label %12, label %14

12:                                               ; preds = %8
  %13 = getelementptr inbounds i8, ptr %0, i64 16
  store i32 2, ptr %13, align 8
  br label %58

14:                                               ; preds = %8
  %15 = getelementptr inbounds i8, ptr %10, i64 8
  store ptr %3, ptr %15, align 8
  br label %16

16:                                               ; preds = %14, %6
  %.042 = phi ptr [ %10, %14 ], [ %2, %6 ]
  %17 = getelementptr inbounds i8, ptr %3, i64 4
  %18 = load i32, ptr %17, align 4
  switch i32 %18, label %55 [
    i32 0, label %.preheader56
    i32 1, label %32
    i32 2, label %34
    i32 3, label %.preheader59
    i32 4, label %.preheader61
  ]

.preheader61:                                     ; preds = %16
  %.0.in.i5266 = getelementptr inbounds i8, ptr %1, i64 40
  %.0.i5367 = load ptr, ptr %.0.in.i5266, align 8
  %.not.i5468 = icmp eq ptr %.0.i5367, null
  br i1 %.not.i5468, label %lxb_selectors_descendant_next.exit, label %.lr.ph

.preheader56:                                     ; preds = %16, %.preheader56.backedge
  %.0.i = phi ptr [ %.2.i, %.preheader56.backedge ], [ %1, %16 ]
  %19 = getelementptr inbounds i8, ptr %.0.i, i64 64
  %20 = load ptr, ptr %19, align 8
  %.not.i = icmp eq ptr %20, null
  br i1 %.not.i, label %.preheader, label %.critedge.i

.preheader:                                       ; preds = %.preheader56
  %.not18.i79 = icmp eq ptr %.0.i, %1
  br i1 %.not18.i79, label %lxb_selectors_descendant_next.exit, label %.lr.ph81

.lr.ph81:                                         ; preds = %.preheader, %24
  %.1.i80 = phi ptr [ %26, %24 ], [ %.0.i, %.preheader ]
  %21 = getelementptr inbounds i8, ptr %.1.i80, i64 40
  %22 = load ptr, ptr %21, align 8
  %23 = icmp eq ptr %22, null
  br i1 %23, label %24, label %.critedge.i

24:                                               ; preds = %.lr.ph81
  %25 = getelementptr inbounds i8, ptr %.1.i80, i64 56
  %26 = load ptr, ptr %25, align 8
  %.not18.i = icmp eq ptr %26, %1
  br i1 %.not18.i, label %lxb_selectors_descendant_next.exit, label %.lr.ph81

.critedge.i:                                      ; preds = %.lr.ph81, %.preheader56
  %.2.i = phi ptr [ %20, %.preheader56 ], [ %22, %.lr.ph81 ]
  %27 = getelementptr inbounds i8, ptr %.2.i, i64 88
  %28 = load i32, ptr %27, align 8
  %29 = icmp eq i32 %28, 1
  br i1 %29, label %30, label %.preheader56.backedge

30:                                               ; preds = %.critedge.i
  %31 = tail call fastcc zeroext i1 @lxb_selectors_match(ptr noundef %0, ptr noundef nonnull %.042, ptr noundef %3, ptr noundef nonnull %.2.i)
  br i1 %31, label %lxb_selectors_descendant_next.exit, label %.preheader56.backedge

.preheader56.backedge:                            ; preds = %30, %.critedge.i
  br label %.preheader56

32:                                               ; preds = %16
  %33 = tail call fastcc zeroext i1 @lxb_selectors_match(ptr noundef %0, ptr noundef nonnull %.042, ptr noundef nonnull %3, ptr noundef %1)
  %..i = select i1 %33, ptr %1, ptr null
  br label %lxb_selectors_descendant_next.exit

34:                                               ; preds = %16
  %35 = getelementptr inbounds i8, ptr %1, i64 64
  %.0.i4572 = load ptr, ptr %35, align 8
  %.not.i4673 = icmp eq ptr %.0.i4572, null
  br i1 %.not.i4673, label %lxb_selectors_descendant_next.exit, label %.lr.ph75

.lr.ph75:                                         ; preds = %34, %41
  %.0.i4574 = phi ptr [ %.0.i45, %41 ], [ %.0.i4572, %34 ]
  %36 = getelementptr inbounds i8, ptr %.0.i4574, i64 88
  %37 = load i32, ptr %36, align 8
  %38 = icmp eq i32 %37, 1
  br i1 %38, label %39, label %41

39:                                               ; preds = %.lr.ph75
  %40 = tail call fastcc zeroext i1 @lxb_selectors_match(ptr noundef %0, ptr noundef nonnull %.042, ptr noundef %3, ptr noundef nonnull %.0.i4574)
  br i1 %40, label %lxb_selectors_descendant_next.exit, label %41

41:                                               ; preds = %39, %.lr.ph75
  %42 = getelementptr inbounds i8, ptr %.0.i4574, i64 40
  %.0.i45 = load ptr, ptr %42, align 8
  %.not.i46 = icmp eq ptr %.0.i45, null
  br i1 %.not.i46, label %lxb_selectors_descendant_next.exit, label %.lr.ph75

.preheader59:                                     ; preds = %16, %43
  %.pn.i = phi ptr [ %.0.i48, %43 ], [ %1, %16 ]
  %.0.in.i47 = getelementptr inbounds i8, ptr %.pn.i, i64 40
  %.0.i48 = load ptr, ptr %.0.in.i47, align 8
  %.not.i49 = icmp eq ptr %.0.i48, null
  br i1 %.not.i49, label %lxb_selectors_descendant_next.exit, label %43

43:                                               ; preds = %.preheader59
  %44 = getelementptr inbounds i8, ptr %.0.i48, i64 88
  %45 = load i32, ptr %44, align 8
  %46 = icmp eq i32 %45, 1
  br i1 %46, label %47, label %.preheader59

47:                                               ; preds = %43
  %48 = tail call fastcc zeroext i1 @lxb_selectors_match(ptr noundef %0, ptr noundef nonnull %.042, ptr noundef %3, ptr noundef nonnull %.0.i48)
  %.0..i = select i1 %48, ptr %.0.i48, ptr null
  br label %lxb_selectors_descendant_next.exit

.lr.ph:                                           ; preds = %.preheader61, %54
  %.0.i5369 = phi ptr [ %.0.i53, %54 ], [ %.0.i5367, %.preheader61 ]
  %49 = getelementptr inbounds i8, ptr %.0.i5369, i64 88
  %50 = load i32, ptr %49, align 8
  %51 = icmp eq i32 %50, 1
  br i1 %51, label %52, label %54

52:                                               ; preds = %.lr.ph
  %53 = tail call fastcc zeroext i1 @lxb_selectors_match(ptr noundef %0, ptr noundef nonnull %.042, ptr noundef %3, ptr noundef nonnull %.0.i5369)
  br i1 %53, label %lxb_selectors_descendant_next.exit, label %54

54:                                               ; preds = %52, %.lr.ph
  %.0.in.i52 = getelementptr inbounds i8, ptr %.0.i5369, i64 40
  %.0.i53 = load ptr, ptr %.0.in.i52, align 8
  %.not.i54 = icmp eq ptr %.0.i53, null
  br i1 %.not.i54, label %lxb_selectors_descendant_next.exit, label %.lr.ph

55:                                               ; preds = %16
  %56 = getelementptr inbounds i8, ptr %0, i64 16
  store i32 1, ptr %56, align 8
  br label %58

lxb_selectors_descendant_next.exit:               ; preds = %54, %52, %.preheader59, %41, %39, %30, %.preheader, %24, %.preheader61, %34, %47, %32
  %.041 = phi ptr [ %..i, %32 ], [ %.0..i, %47 ], [ null, %34 ], [ null, %.preheader61 ], [ null, %24 ], [ null, %.preheader ], [ %.2.i, %30 ], [ null, %41 ], [ %.0.i4574, %39 ], [ null, %.preheader59 ], [ null, %54 ], [ %.0.i5369, %52 ]
  %57 = tail call fastcc i32 @lxb_selectors_find_by(ptr noundef %0, ptr noundef nonnull %.042, ptr noundef %1, ptr noundef %.041, ptr noundef %3, ptr noundef %4, ptr noundef %5)
  %.not = icmp eq i32 %57, 0
  %.042. = select i1 %.not, ptr %.042, ptr null
  br label %58

58:                                               ; preds = %lxb_selectors_descendant_next.exit, %55, %12
  %.0 = phi ptr [ null, %12 ], [ null, %55 ], [ %.042., %lxb_selectors_descendant_next.exit ]
  ret ptr %.0
}